target datalayout = "e-m:e-p270:32:32-p271:32:32-p272:64:64-i64:64-i128:128-f80:128-n8:16:32:64-S128"
target triple = "x86_64-pc-linux-gnu"

%"class.llvm::BlockFrequency" = type { i64 }
%"class.std::optional" = type { %"struct.std::_Optional_base" }
%"struct.std::_Optional_base" = type { %"struct.std::_Optional_payload" }
%"struct.std::_Optional_payload" = type { %"struct.std::_Optional_payload_base.base", [7 x i8] }
%"struct.std::_Optional_payload_base.base" = type <{ %"union.std::_Optional_payload_base<llvm::BlockFrequency>::_Storage", i8 }>
%"union.std::_Optional_payload_base<llvm::BlockFrequency>::_Storage" = type { %"class.llvm::BlockFrequency" }
%"struct.std::_Optional_payload_base" = type <{ %"union.std::_Optional_payload_base<llvm::BlockFrequency>::_Storage", i8, [7 x i8] }>

; Function Attrs: mustprogress nounwind uwtable
define linkonce_odr hidden void @_ZNSt22_Optional_payload_baseIN4llvm14BlockFrequencyEE8_StorageIS1_Lb1EEC2IJS1_EEESt10in_place_tDpOT_(ptr noundef nonnull align 8 dereferenceable(8) %0, ptr noundef nonnull align 8 dereferenceable(8) %1) unnamed_addr #0 comdat align 2 {
  %3 = alloca ptr, align 8
  %4 = alloca ptr, align 8
  store ptr %0, ptr %3, align 8
  store ptr %1, ptr %4, align 8
  %5 = load ptr, ptr %3, align 8
  %6 = load ptr, ptr %4, align 8
  call void @llvm.memcpy.p0.p0.i64(ptr align 8 %5, ptr align 8 %6, i64 8, i1 false)
  ret void
}

; Function Attrs: mustprogress nounwind uwtable
define linkonce_odr hidden void @_ZNSt22_Optional_payload_baseIN4llvm14BlockFrequencyEE8_StorageIS1_Lb1EEC2Ev(ptr noundef nonnull align 8 dereferenceable(8) %0) unnamed_addr #0 comdat align 2 {
  %2 = alloca ptr, align 8
  store ptr %0, ptr %2, align 8
  ret void
}

; Function Attrs: mustprogress nounwind uwtable
define linkonce_odr hidden void @_ZNSt22_Optional_payload_baseIN4llvm14BlockFrequencyEEC2IJS1_EEESt10in_place_tDpOT_(ptr noundef nonnull align 8 dereferenceable(9) %0, ptr noundef nonnull align 8 dereferenceable(8) %1) unnamed_addr #0 comdat align 2 {
  %3 = alloca ptr, align 8
  %4 = alloca ptr, align 8
  store ptr %0, ptr %3, align 8
  store ptr %1, ptr %4, align 8
  %5 = load ptr, ptr %3, align 8
  %6 = getelementptr inbounds nuw %"struct.std::_Optional_payload_base", ptr %5, i32 0, i32 0
  %7 = load ptr, ptr %4, align 8
  call void @_ZNSt22_Optional_payload_baseIN4llvm14BlockFrequencyEE8_StorageIS1_Lb1EEC2IJS1_EEESt10in_place_tDpOT_(ptr noundef nonnull align 8 dereferenceable(8) %6, ptr noundef nonnull align 8 dereferenceable(8) %7)
  %8 = getelementptr inbounds nuw %"struct.std::_Optional_payload_base", ptr %5, i32 0, i32 1
  store i8 1, ptr %8, align 8
  ret void
}

; Function Attrs: mustprogress nounwind uwtable
define linkonce_odr hidden void @_ZNSt22_Optional_payload_baseIN4llvm14BlockFrequencyEEC2Ev(ptr noundef nonnull align 8 dereferenceable(9) %0) unnamed_addr #0 comdat align 2 {
  %2 = alloca ptr, align 8
  store ptr %0, ptr %2, align 8
  %3 = load ptr, ptr %2, align 8
  %4 = getelementptr inbounds nuw %"struct.std::_Optional_payload_base", ptr %3, i32 0, i32 0
  call void @_ZNSt22_Optional_payload_baseIN4llvm14BlockFrequencyEE8_StorageIS1_Lb1EEC2Ev(ptr noundef nonnull align 8 dereferenceable(8) %4) #5
  %5 = getelementptr inbounds nuw %"struct.std::_Optional_payload_base", ptr %3, i32 0, i32 1
  store i8 0, ptr %5, align 8
  ret void
}

; Function Attrs: mustprogress nounwind uwtable
define linkonce_odr hidden noundef i32 @_ZN4llvm6detail19LeadingZerosCounterImLm8EE5countEm(i64 noundef %0) #0 comdat align 2 {
  %2 = alloca i32, align 4
  %3 = alloca i64, align 8
  store i64 %0, ptr %3, align 8
  %4 = load i64, ptr %3, align 8
  %5 = icmp eq i64 %4, 0
  br i1 %5, label %6, label %7

6:                                                ; preds = %1
  store i32 64, ptr %2, align 4
  br label %11

7:                                                ; preds = %1
  %8 = load i64, ptr %3, align 8
  %9 = call i64 @llvm.ctlz.i64(i64 %8, i1 true)
  %10 = trunc i64 %9 to i32
  store i32 %10, ptr %2, align 4
  br label %11

11:                                               ; preds = %7, %6
  %12 = load i32, ptr %2, align 4
  ret i32 %12
}

; Function Attrs: mustprogress nounwind uwtable
define linkonce_odr hidden void @_ZNSt17_Optional_payloadIN4llvm14BlockFrequencyELb1ELb1ELb1EECI2St22_Optional_payload_baseIS1_EIJS1_EEESt10in_place_tDpOT_(ptr noundef nonnull align 8 dereferenceable(9) %0, ptr noundef nonnull align 8 dereferenceable(8) %1) unnamed_addr #0 comdat align 2 {
  %3 = alloca ptr, align 8
  %4 = alloca ptr, align 8
  store ptr %0, ptr %3, align 8
  store ptr %1, ptr %4, align 8
  %5 = load ptr, ptr %3, align 8
  %6 = load ptr, ptr %4, align 8
  call void @_ZNSt22_Optional_payload_baseIN4llvm14BlockFrequencyEEC2IJS1_EEESt10in_place_tDpOT_(ptr noundef nonnull align 8 dereferenceable(9) %5, ptr noundef nonnull align 8 dereferenceable(8) %6)
  ret void
}

; Function Attrs: mustprogress nounwind uwtable
define linkonce_odr hidden void @_ZNSt17_Optional_payloadIN4llvm14BlockFrequencyELb1ELb1ELb1EEC2Ev(ptr noundef nonnull align 8 dereferenceable(9) %0) unnamed_addr #0 comdat align 2 {
  %2 = alloca ptr, align 8
  store ptr %0, ptr %2, align 8
  %3 = load ptr, ptr %2, align 8
  call void @_ZNSt22_Optional_payload_baseIN4llvm14BlockFrequencyEEC2Ev(ptr noundef nonnull align 8 dereferenceable(9) %3) #5
  ret void
}

; Function Attrs: mustprogress nounwind uwtable
define linkonce_odr hidden noundef i64 @_ZNSt14numeric_limitsImE3maxEv() #0 comdat align 2 {
  ret i64 -1
}

; Function Attrs: mustprogress nounwind uwtable
define linkonce_odr noundef i32 @_ZN4llvm11countl_zeroImEEiT_(i64 noundef %0) #0 comdat {
  %2 = alloca i64, align 8
  store i64 %0, ptr %2, align 8
  %3 = load i64, ptr %2, align 8
  %4 = call noundef i32 @_ZN4llvm6detail19LeadingZerosCounterImLm8EE5countEm(i64 noundef %3)
  ret i32 %4
}

; Function Attrs: mustprogress nounwind uwtable
define linkonce_odr hidden void @_ZNSt14_Optional_baseIN4llvm14BlockFrequencyELb1ELb1EEC2IJS1_ETnNSt9enable_ifIX18is_constructible_vIS1_DpT_EEbE4typeELb0EEESt10in_place_tDpOS5_(ptr noundef nonnull align 8 dereferenceable(16) %0, ptr noundef nonnull align 8 dereferenceable(8) %1) unnamed_addr #0 comdat align 2 {
  %3 = alloca ptr, align 8
  %4 = alloca ptr, align 8
  store ptr %0, ptr %3, align 8
  store ptr %1, ptr %4, align 8
  %5 = load ptr, ptr %3, align 8
  %6 = getelementptr inbounds nuw %"struct.std::_Optional_base", ptr %5, i32 0, i32 0
  %7 = load ptr, ptr %4, align 8
  call void @_ZNSt17_Optional_payloadIN4llvm14BlockFrequencyELb1ELb1ELb1EECI2St22_Optional_payload_baseIS1_EIJS1_EEESt10in_place_tDpOT_(ptr noundef nonnull align 8 dereferenceable(9) %6, ptr noundef nonnull align 8 dereferenceable(8) %7)
  ret void
}

; Function Attrs: mustprogress nounwind uwtable
define linkonce_odr hidden void @_ZNSt14_Optional_baseIN4llvm14BlockFrequencyELb1ELb1EEC2Ev(ptr noundef nonnull align 8 dereferenceable(16) %0) unnamed_addr #0 comdat align 2 {
  %2 = alloca ptr, align 8
  store ptr %0, ptr %2, align 8
  %3 = load ptr, ptr %2, align 8
  %4 = getelementptr inbounds nuw %"struct.std::_Optional_base", ptr %3, i32 0, i32 0
  call void @_ZNSt17_Optional_payloadIN4llvm14BlockFrequencyELb1ELb1ELb1EEC2Ev(ptr noundef nonnull align 8 dereferenceable(9) %4) #5
  ret void
}

; Function Attrs: mustprogress nounwind uwtable
define linkonce_odr noundef i64 @_ZN4llvm13SaturatingAddImEENSt9enable_ifIXsr3stdE13is_unsigned_vIT_EES2_E4typeES2_S2_Pb(i64 noundef %0, i64 noundef %1, ptr noundef %2) #0 comdat {
  %4 = alloca i64, align 8
  %5 = alloca i64, align 8
  %6 = alloca i64, align 8
  %7 = alloca ptr, align 8
  %8 = alloca i8, align 1
  %9 = alloca ptr, align 8
  %10 = alloca i64, align 8
  store i64 %0, ptr %5, align 8
  store i64 %1, ptr %6, align 8
  store ptr %2, ptr %7, align 8
  %11 = load ptr, ptr %7, align 8
  %12 = icmp ne ptr %11, null
  br i1 %12, label %13, label %15

13:                                               ; preds = %3
  %14 = load ptr, ptr %7, align 8
  br label %16

15:                                               ; preds = %3
  br label %16

16:                                               ; preds = %15, %13
  %17 = phi ptr [ %14, %13 ], [ %8, %15 ]
  store ptr %17, ptr %9, align 8
  %18 = load i64, ptr %5, align 8
  %19 = load i64, ptr %6, align 8
  %20 = add i64 %18, %19
  store i64 %20, ptr %10, align 8
  %21 = load i64, ptr %10, align 8
  %22 = load i64, ptr %5, align 8
  %23 = icmp ult i64 %21, %22
  br i1 %23, label %28, label %24

24:                                               ; preds = %16
  %25 = load i64, ptr %10, align 8
  %26 = load i64, ptr %6, align 8
  %27 = icmp ult i64 %25, %26
  br label %28

28:                                               ; preds = %24, %16
  %29 = phi i1 [ true, %16 ], [ %27, %24 ]
  %30 = load ptr, ptr %9, align 8
  %31 = zext i1 %29 to i8
  store i8 %31, ptr %30, align 1
  %32 = load ptr, ptr %9, align 8
  %33 = load i8, ptr %32, align 1
  %34 = trunc i8 %33 to i1
  br i1 %34, label %35, label %37

35:                                               ; preds = %28
  %36 = call noundef i64 @_ZNSt14numeric_limitsImE3maxEv() #5
  store i64 %36, ptr %4, align 8
  br label %39

37:                                               ; preds = %28
  %38 = load i64, ptr %10, align 8
  store i64 %38, ptr %4, align 8
  br label %39

39:                                               ; preds = %37, %35
  %40 = load i64, ptr %4, align 8
  ret i64 %40
}

; Function Attrs: mustprogress nounwind uwtable
define linkonce_odr hidden noundef i32 @_ZN4llvm7Log2_64Em(i64 noundef %0) #0 comdat {
  %2 = alloca i64, align 8
  store i64 %0, ptr %2, align 8
  %3 = load i64, ptr %2, align 8
  %4 = call noundef i32 @_ZN4llvm11countl_zeroImEEiT_(i64 noundef %3)
  %5 = sub nsw i32 63, %4
  ret i32 %5
}

; Function Attrs: mustprogress nounwind uwtable
define linkonce_odr hidden void @_ZNSt8optionalIN4llvm14BlockFrequencyEEC2IS1_TnNSt9enable_ifIX7__and_vISt6__not_ISt7is_sameIS2_NSt9remove_cvINSt16remove_referenceIT_E4typeEE4typeEEES5_IS6_ISt10in_place_tSD_EESt16is_constructibleIS1_JS9_EESt14is_convertibleIS9_S1_EEEbE4typeELb1EEEOS9_(ptr noundef nonnull align 8 dereferenceable(16) %0, ptr noundef nonnull align 8 dereferenceable(8) %1) unnamed_addr #0 comdat align 2 {
  %3 = alloca ptr, align 8
  %4 = alloca ptr, align 8
  store ptr %0, ptr %3, align 8
  store ptr %1, ptr %4, align 8
  %5 = load ptr, ptr %3, align 8
  %6 = load ptr, ptr %4, align 8
  call void @_ZNSt14_Optional_baseIN4llvm14BlockFrequencyELb1ELb1EEC2IJS1_ETnNSt9enable_ifIX18is_constructible_vIS1_DpT_EEbE4typeELb0EEESt10in_place_tDpOS5_(ptr noundef nonnull align 8 dereferenceable(16) %5, ptr noundef nonnull align 8 dereferenceable(8) %6)
  ret void
}

; Function Attrs: mustprogress nounwind uwtable
define linkonce_odr hidden void @_ZN4llvm14BlockFrequencyC2Em(ptr noundef nonnull align 8 dereferenceable(8) %0, i64 noundef %1) unnamed_addr #0 comdat align 2 {
  %3 = alloca ptr, align 8
  %4 = alloca i64, align 8
  store ptr %0, ptr %3, align 8
  store i64 %1, ptr %4, align 8
  %5 = load ptr, ptr %3, align 8
  %6 = getelementptr inbounds nuw %"class.llvm::BlockFrequency", ptr %5, i32 0, i32 0
  %7 = load i64, ptr %4, align 8
  store i64 %7, ptr %6, align 8
  ret void
}

; Function Attrs: mustprogress nounwind uwtable
define linkonce_odr hidden void @_ZNSt8optionalIN4llvm14BlockFrequencyEEC2Ev(ptr noundef nonnull align 8 dereferenceable(16) %0) unnamed_addr #0 comdat align 2 {
  %2 = alloca ptr, align 8
  store ptr %0, ptr %2, align 8
  %3 = load ptr, ptr %2, align 8
  call void @_ZNSt14_Optional_baseIN4llvm14BlockFrequencyELb1ELb1EEC2Ev(ptr noundef nonnull align 8 dereferenceable(16) %3) #5
  ret void
}

; Function Attrs: mustprogress nounwind uwtable
define linkonce_odr noundef i64 @_ZN4llvm18SaturatingMultiplyImEENSt9enable_ifIXsr3stdE13is_unsigned_vIT_EES2_E4typeES2_S2_Pb(i64 noundef %0, i64 noundef %1, ptr noundef %2) #0 comdat {
  %4 = alloca i64, align 8
  %5 = alloca i64, align 8
  %6 = alloca i64, align 8
  %7 = alloca ptr, align 8
  %8 = alloca i8, align 1
  %9 = alloca ptr, align 8
  %10 = alloca i32, align 4
  %11 = alloca i64, align 8
  %12 = alloca i32, align 4
  %13 = alloca i64, align 8
  store i64 %0, ptr %5, align 8
  store i64 %1, ptr %6, align 8
  store ptr %2, ptr %7, align 8
  %14 = load ptr, ptr %7, align 8
  %15 = icmp ne ptr %14, null
  br i1 %15, label %16, label %18

16:                                               ; preds = %3
  %17 = load ptr, ptr %7, align 8
  br label %19

18:                                               ; preds = %3
  br label %19

19:                                               ; preds = %18, %16
  %20 = phi ptr [ %17, %16 ], [ %8, %18 ]
  store ptr %20, ptr %9, align 8
  %21 = load ptr, ptr %9, align 8
  store i8 0, ptr %21, align 1
  %22 = load i64, ptr %5, align 8
  %23 = call noundef i32 @_ZN4llvm7Log2_64Em(i64 noundef %22)
  %24 = load i64, ptr %6, align 8
  %25 = call noundef i32 @_ZN4llvm7Log2_64Em(i64 noundef %24)
  %26 = add i32 %23, %25
  store i32 %26, ptr %10, align 4
  store i64 -1, ptr %11, align 8
  %27 = call noundef i32 @_ZN4llvm7Log2_64Em(i64 noundef -1)
  store i32 %27, ptr %12, align 4
  %28 = load i32, ptr %10, align 4
  %29 = load i32, ptr %12, align 4
  %30 = icmp slt i32 %28, %29
  br i1 %30, label %31, label %35

31:                                               ; preds = %19
  %32 = load i64, ptr %5, align 8
  %33 = load i64, ptr %6, align 8
  %34 = mul i64 %32, %33
  store i64 %34, ptr %4, align 8
  br label %64

35:                                               ; preds = %19
  %36 = load i32, ptr %10, align 4
  %37 = load i32, ptr %12, align 4
  %38 = icmp sgt i32 %36, %37
  br i1 %38, label %39, label %41

39:                                               ; preds = %35
  %40 = load ptr, ptr %9, align 8
  store i8 1, ptr %40, align 1
  store i64 -1, ptr %4, align 8
  br label %64

41:                                               ; preds = %35
  %42 = load i64, ptr %5, align 8
  %43 = lshr i64 %42, 1
  %44 = load i64, ptr %6, align 8
  %45 = mul i64 %43, %44
  store i64 %45, ptr %13, align 8
  %46 = load i64, ptr %13, align 8
  %47 = and i64 %46, -9223372036854775808
  %48 = icmp ne i64 %47, 0
  br i1 %48, label %49, label %51

49:                                               ; preds = %41
  %50 = load ptr, ptr %9, align 8
  store i8 1, ptr %50, align 1
  store i64 -1, ptr %4, align 8
  br label %64

51:                                               ; preds = %41
  %52 = load i64, ptr %13, align 8
  %53 = shl i64 %52, 1
  store i64 %53, ptr %13, align 8
  %54 = load i64, ptr %5, align 8
  %55 = and i64 %54, 1
  %56 = icmp ne i64 %55, 0
  br i1 %56, label %57, label %62

57:                                               ; preds = %51
  %58 = load i64, ptr %13, align 8
  %59 = load i64, ptr %6, align 8
  %60 = load ptr, ptr %7, align 8
  %61 = call noundef i64 @_ZN4llvm13SaturatingAddImEENSt9enable_ifIXsr3stdE13is_unsigned_vIT_EES2_E4typeES2_S2_Pb(i64 noundef %58, i64 noundef %59, ptr noundef %60)
  store i64 %61, ptr %4, align 8
  br label %64

62:                                               ; preds = %51
  %63 = load i64, ptr %13, align 8
  store i64 %63, ptr %4, align 8
  br label %64

64:                                               ; preds = %62, %57, %49, %39, %31
  %65 = load i64, ptr %4, align 8
  ret i64 %65
}

; Function Attrs: mustprogress nounwind uwtable
define dso_local { i64, i8 } @_ZNK4llvm14BlockFrequency3mulEm(ptr noundef nonnull align 8 dereferenceable(8) %0, i64 noundef %1) #0 align 2 {
  %3 = alloca %"class.std::optional", align 8
  %4 = alloca ptr, align 8
  %5 = alloca i64, align 8
  %6 = alloca i8, align 1
  %7 = alloca i64, align 8
  %8 = alloca %"class.llvm::BlockFrequency", align 8
  store ptr %0, ptr %4, align 8
  store i64 %1, ptr %5, align 8
  %9 = load ptr, ptr %4, align 8
  %10 = getelementptr inbounds nuw %"class.llvm::BlockFrequency", ptr %9, i32 0, i32 0
  %11 = load i64, ptr %10, align 8
  %12 = load i64, ptr %5, align 8
  %13 = call noundef i64 @_ZN4llvm18SaturatingMultiplyImEENSt9enable_ifIXsr3stdE13is_unsigned_vIT_EES2_E4typeES2_S2_Pb(i64 noundef %11, i64 noundef %12, ptr noundef %6)
  store i64 %13, ptr %7, align 8
  %14 = load i8, ptr %6, align 1
  %15 = trunc i8 %14 to i1
  br i1 %15, label %16, label %17

16:                                               ; preds = %2
  call void @_ZNSt8optionalIN4llvm14BlockFrequencyEEC2Ev(ptr noundef nonnull align 8 dereferenceable(16) %3) #5
  br label %19

17:                                               ; preds = %2
  %18 = load i64, ptr %7, align 8
  call void @_ZN4llvm14BlockFrequencyC2Em(ptr noundef nonnull align 8 dereferenceable(8) %8, i64 noundef %18)
  call void @_ZNSt8optionalIN4llvm14BlockFrequencyEEC2IS1_TnNSt9enable_ifIX7__and_vISt6__not_ISt7is_sameIS2_NSt9remove_cvINSt16remove_referenceIT_E4typeEE4typeEEES5_IS6_ISt10in_place_tSD_EESt16is_constructibleIS1_JS9_EESt14is_convertibleIS9_S1_EEEbE4typeELb1EEEOS9_(ptr noundef nonnull align 8 dereferenceable(16) %3, ptr noundef nonnull align 8 dereferenceable(8) %8) #5
  br label %19

19:                                               ; preds = %17, %16
  %20 = getelementptr inbounds nuw %"class.std::optional", ptr %3, i32 0, i32 0
  %21 = getelementptr inbounds nuw %"struct.std::_Optional_base", ptr %20, i32 0, i32 0
  %22 = load { i64, i8 }, ptr %21, align 8
  ret { i64, i8 } %22
}