; Function Attrs: mustprogress nofree norecurse nosync nounwind willreturn memory(argmem: read) uwtable
define dso_local { i64, i8 } @_ZNK4llvm14BlockFrequency3mulEm(ptr noundef nonnull readonly align 8 captures(none) dereferenceable(8) %0, i64 noundef %1) local_unnamed_addr #3 align 2 {
  %3 = load i64, ptr %0, align 8
  %4 = tail call range(i64 0, 65) i64 @llvm.ctlz.i64(i64 %3, i1 false)
  %5 = trunc nuw nsw i64 %4 to i32
  %6 = tail call range(i64 0, 65) i64 @llvm.ctlz.i64(i64 %1, i1 false)
  %7 = trunc nuw nsw i64 %6 to i32
  %8 = add nuw nsw i32 %5, %7
  %9 = icmp samesign ugt i32 %8, 63
  br i1 %9, label %10, label %12

10:                                               ; preds = %2
  %11 = mul i64 %3, %1
  br label %_ZN4llvm18SaturatingMultiplyImEENSt9enable_ifIXsr3stdE13is_unsigned_vIT_EES2_E4typeES2_S2_Pb.exit.thread

12:                                               ; preds = %2
  %.not32.i = icmp eq i32 %8, 63
  br i1 %.not32.i, label %13, label %_ZN4llvm18SaturatingMultiplyImEENSt9enable_ifIXsr3stdE13is_unsigned_vIT_EES2_E4typeES2_S2_Pb.exit.thread

13:                                               ; preds = %12
  %14 = lshr i64 %3, 1
  %15 = mul i64 %14, %1
  %.not24.i = icmp sgt i64 %15, -1
  br i1 %.not24.i, label %16, label %_ZN4llvm18SaturatingMultiplyImEENSt9enable_ifIXsr3stdE13is_unsigned_vIT_EES2_E4typeES2_S2_Pb.exit.thread

16:                                               ; preds = %13
  %17 = shl nuw i64 %15, 1
  %18 = and i64 %3, 1
  %.not25.i = icmp eq i64 %18, 0
  br i1 %.not25.i, label %_ZN4llvm18SaturatingMultiplyImEENSt9enable_ifIXsr3stdE13is_unsigned_vIT_EES2_E4typeES2_S2_Pb.exit.thread, label %_ZN4llvm18SaturatingMultiplyImEENSt9enable_ifIXsr3stdE13is_unsigned_vIT_EES2_E4typeES2_S2_Pb.exit

_ZN4llvm18SaturatingMultiplyImEENSt9enable_ifIXsr3stdE13is_unsigned_vIT_EES2_E4typeES2_S2_Pb.exit: ; preds = %16
  %19 = add i64 %17, %1
  %20 = icmp uge i64 %19, %17
  %spec.select.i.i = select i1 %20, i64 %19, i64 -1
  %spec.select10 = zext i1 %20 to i8
  br label %_ZN4llvm18SaturatingMultiplyImEENSt9enable_ifIXsr3stdE13is_unsigned_vIT_EES2_E4typeES2_S2_Pb.exit.thread

_ZN4llvm18SaturatingMultiplyImEENSt9enable_ifIXsr3stdE13is_unsigned_vIT_EES2_E4typeES2_S2_Pb.exit.thread: ; preds = %_ZN4llvm18SaturatingMultiplyImEENSt9enable_ifIXsr3stdE13is_unsigned_vIT_EES2_E4typeES2_S2_Pb.exit, %16, %10, %13, %12
  %.sroa.02.0 = phi i64 [ undef, %12 ], [ undef, %13 ], [ %17, %16 ], [ %11, %10 ], [ %spec.select.i.i, %_ZN4llvm18SaturatingMultiplyImEENSt9enable_ifIXsr3stdE13is_unsigned_vIT_EES2_E4typeES2_S2_Pb.exit ]
  %.sroa.2.0 = phi i8 [ 0, %12 ], [ 0, %13 ], [ 1, %16 ], [ 1, %10 ], [ %spec.select10, %_ZN4llvm18SaturatingMultiplyImEENSt9enable_ifIXsr3stdE13is_unsigned_vIT_EES2_E4typeES2_S2_Pb.exit ]
  %.fca.0.insert = insertvalue { i64, i8 } poison, i64 %.sroa.02.0, 0
  %.fca.1.insert = insertvalue { i64, i8 } %.fca.0.insert, i8 %.sroa.2.0, 1
  ret { i64, i8 } %.fca.1.insert
}